target datalayout = "e-m:e-p270:32:32-p271:32:32-p272:64:64-i64:64-i128:128-f80:128-n8:16:32:64-S128"
target triple = "x86_64-pc-linux-gnu"

; Function Attrs: mustprogress uwtable
define noundef i64 @_ZN32pxrInternal_v0_24__pxrReserved__22ArchTicksToNanosecondsEm(i64 noundef %0) #0 {
  %2 = alloca i64, align 8
  store i64 %0, ptr %2, align 8
  %3 = load i64, ptr %2, align 8
  %4 = uitofp i64 %3 to double
  %5 = call noundef double @_ZN32pxrInternal_v0_24__pxrReserved__25ArchGetNanosecondsPerTickEv()
  %6 = fmul double %4, %5
  %7 = call i64 @llround(double noundef %6) #3
  ret i64 %7
}

; Function Attrs: mustprogress uwtable
define noundef double @_ZN32pxrInternal_v0_24__pxrReserved__18ArchTicksToSecondsEm(i64 noundef %0) #0 {
  %2 = alloca i64, align 8
  store i64 %0, ptr %2, align 8
  %3 = load i64, ptr %2, align 8
  %4 = call noundef i64 @_ZN32pxrInternal_v0_24__pxrReserved__22ArchTicksToNanosecondsEm(i64 noundef %3)
  %5 = sitofp i64 %4 to double
  %6 = fdiv double %5, 1.000000e+09
  ret double %6
}