; Function Attrs: mustprogress uwtable
define noundef double @_ZN32pxrInternal_v0_24__pxrReserved__18ArchTicksToSecondsEm(i64 noundef %0) local_unnamed_addr #1 {
  %2 = uitofp i64 %0 to double
  %3 = tail call noundef double @_ZN32pxrInternal_v0_24__pxrReserved__25ArchGetNanosecondsPerTickEv()
  %4 = fmul double %3, %2
  %5 = tail call noundef i64 @llround(double noundef %4) #3
  %6 = sitofp i64 %5 to double
  %7 = fdiv double %6, 1.000000e+09
  ret double %7
}